target datalayout = "e-m:e-p270:32:32-p271:32:32-p272:64:64-i64:64-i128:128-f80:128-n8:16:32:64-S128"
target triple = "x86_64-unknown-linux-gnu"

%struct.SysBusDevice = type { %struct.DeviceState, i32, [32 x %struct.anon], i32, [32 x i32] }
%struct.DeviceState = type { %struct.Object, ptr, ptr, i8, i8, i64, ptr, i32, i8, ptr, %struct.NamedGPIOListHead, %struct.NamedClockListHead, %struct.BusStateHead, i32, i32, i32, %struct.ResettableState, ptr, %struct.MemReentrancyGuard }
%struct.Object = type { ptr, ptr, ptr, i32, ptr }
%struct.NamedGPIOListHead = type { ptr }
%struct.NamedClockListHead = type { ptr }
%struct.BusStateHead = type { ptr }
%struct.ResettableState = type { i32, i8, i8 }
%struct.MemReentrancyGuard = type { i8 }
%struct.anon = type { i64, ptr }
%struct.MemoryRegion = type { %struct.Object, i8, i8, i8, i8, i8, i8, i8, i8, i8, i8, ptr, ptr, ptr, ptr, ptr, ptr, i32, i128, i64, ptr, i64, i8, i8, i8, i8, i8, ptr, i64, i32, %union.anon, %union.anon.0, %union.anon.1, ptr, i32, ptr, ptr, i8 }
%union.anon = type { %struct.QTailQLink }
%struct.QTailQLink = type { ptr, ptr }
%union.anon.0 = type { %struct.QTailQLink }
%union.anon.1 = type { %struct.QTailQLink }
%struct.RISCVAclintSwiState = type { %struct.SysBusDevice, %struct.MemoryRegion, i32, i32, i32, ptr }

@.str.1 = private unnamed_addr constant [31 x i8] c"../qemu/hw/intc/riscv_aclint.c\00", align 1
@.str.12 = private unnamed_addr constant [17 x i8] c"riscv.aclint.swi\00", align 1
@__func__.riscv_aclint_swi_reset_enter = private unnamed_addr constant [29 x i8] c"riscv_aclint_swi_reset_enter\00", align 1

; Function Attrs: nounwind sspstrong uwtable
define internal void @qemu_irq_lower(ptr noundef %irq) #0 {
entry:
  %irq.addr = alloca ptr, align 8
  store ptr %irq, ptr %irq.addr, align 8
  %0 = load ptr, ptr %irq.addr, align 8
  call void @qemu_set_irq(ptr noundef %0, i32 noundef 0)
  ret void
}

; Function Attrs: nounwind sspstrong uwtable
define internal void @riscv_aclint_swi_reset_enter(ptr noundef %obj, i32 noundef %type) #0 {
entry:
  %obj.addr = alloca ptr, align 8
  %type.addr = alloca i32, align 4
  %swi = alloca ptr, align 8
  %i = alloca i32, align 4
  store ptr %obj, ptr %obj.addr, align 8
  store i32 %type, ptr %type.addr, align 4
  %0 = load ptr, ptr %obj.addr, align 8
  %call = call ptr @object_dynamic_cast_assert(ptr noundef %0, ptr noundef @.str.12, ptr noundef @.str.1, i32 noundef 503, ptr noundef @__func__.riscv_aclint_swi_reset_enter)
  store ptr %call, ptr %swi, align 8
  %1 = load ptr, ptr %swi, align 8
  %sswi = getelementptr inbounds %struct.RISCVAclintSwiState, ptr %1, i32 0, i32 4
  %2 = load i32, ptr %sswi, align 8
  %tobool = icmp ne i32 %2, 0
  br i1 %tobool, label %if.end, label %if.then

if.then:                                          ; preds = %entry
  store i32 0, ptr %i, align 4
  br label %for.cond

for.cond:                                         ; preds = %for.inc, %if.then
  %3 = load i32, ptr %i, align 4
  %4 = load ptr, ptr %swi, align 8
  %num_harts = getelementptr inbounds %struct.RISCVAclintSwiState, ptr %4, i32 0, i32 3
  %5 = load i32, ptr %num_harts, align 4
  %cmp = icmp ult i32 %3, %5
  br i1 %cmp, label %for.body, label %for.end

for.body:                                         ; preds = %for.cond
  %6 = load ptr, ptr %swi, align 8
  %soft_irqs = getelementptr inbounds %struct.RISCVAclintSwiState, ptr %6, i32 0, i32 5
  %7 = load ptr, ptr %soft_irqs, align 16
  %8 = load i32, ptr %i, align 4
  %idxprom = sext i32 %8 to i64
  %arrayidx = getelementptr ptr, ptr %7, i64 %idxprom
  %9 = load ptr, ptr %arrayidx, align 8
  call void @qemu_irq_lower(ptr noundef %9)
  br label %for.inc

for.inc:                                          ; preds = %for.body
  %10 = load i32, ptr %i, align 4
  %inc = add i32 %10, 1
  store i32 %inc, ptr %i, align 4
  br label %for.cond, !llvm.loop !11

for.end:                                          ; preds = %for.cond
  br label %if.end

if.end:                                           ; preds = %for.end, %entry
  ret void
}