; Function Attrs: nounwind sspstrong uwtable
define internal void @riscv_aclint_swi_reset_enter(ptr noundef %obj, i32 %type) #0 {
entry:
  %call = tail call ptr @object_dynamic_cast_assert(ptr noundef %obj, ptr noundef nonnull @.str.12, ptr noundef nonnull @.str.1, i32 noundef 503, ptr noundef nonnull @__func__.riscv_aclint_swi_reset_enter) #6
  %sswi = getelementptr inbounds nuw i8, ptr %call, i64 1096
  %0 = load i32, ptr %sswi, align 8
  %tobool.not = icmp eq i32 %0, 0
  br i1 %tobool.not, label %for.cond.preheader, label %if.end

for.cond.preheader:                               ; preds = %entry
  %num_harts = getelementptr inbounds nuw i8, ptr %call, i64 1092
  %1 = load i32, ptr %num_harts, align 4
  %cmp5.not = icmp eq i32 %1, 0
  br i1 %cmp5.not, label %if.end, label %for.body.lr.ph

for.body.lr.ph:                                   ; preds = %for.cond.preheader
  %soft_irqs = getelementptr inbounds nuw i8, ptr %call, i64 1104
  br label %for.body

for.body:                                         ; preds = %for.body.lr.ph, %for.body
  %i.06 = phi i32 [ 0, %for.body.lr.ph ], [ %inc, %for.body ]
  %2 = load ptr, ptr %soft_irqs, align 16
  %idxprom = sext i32 %i.06 to i64
  %arrayidx = getelementptr ptr, ptr %2, i64 %idxprom
  %3 = load ptr, ptr %arrayidx, align 8
  tail call void @qemu_set_irq(ptr noundef %3, i32 noundef 0) #6
  %inc = add nuw i32 %i.06, 1
  %4 = load i32, ptr %num_harts, align 4
  %cmp = icmp ult i32 %inc, %4
  br i1 %cmp, label %for.body, label %if.end, !llvm.loop !11

if.end:                                           ; preds = %for.body, %for.cond.preheader, %entry
  ret void
}